; Function Attrs: nounwind uwtable
define void @lv_dropdown_set_selected_highlight(ptr nocapture noundef %0, i1 noundef zeroext %1) local_unnamed_addr #0 {
  %3 = getelementptr inbounds nuw i8, ptr %0, i64 112
  %4 = load i8, ptr %3, align 8
  %5 = select i1 %1, i8 32, i8 0
  %6 = and i8 %4, -33
  %7 = or disjoint i8 %6, %5
  store i8 %7, ptr %3, align 8
  %8 = getelementptr inbounds nuw i8, ptr %0, i64 64
  %9 = load ptr, ptr %8, align 8, !tbaa !3
  %.not = icmp eq ptr %9, null
  br i1 %.not, label %11, label %10

10:                                               ; preds = %2
  tail call void @lv_obj_invalidate(ptr noundef nonnull %9) #7
  br label %11

11:                                               ; preds = %10, %2
  ret void
}